; Function Attrs: nounwind uwtable
define ptr @l_Array_set_x21___boxed(ptr noundef readnone captures(none) %0, ptr noundef %1, ptr noundef %2, ptr noundef %3) local_unnamed_addr #0 {
  %5 = ptrtoint ptr %2 to i64
  %6 = and i64 %5, 1
  %.not.i5 = icmp eq i64 %6, 0
  br i1 %.not.i5, label %28, label %7

7:                                                ; preds = %4
  %8 = lshr i64 %5, 1
  %9 = getelementptr i8, ptr %1, i64 8
  %.val.i = load i64, ptr %9, align 8, !tbaa !12
  %10 = icmp ult i64 %8, %.val.i
  br i1 %10, label %12, label %lean_array_set.exit.thread8

lean_array_set.exit.thread8:                      ; preds = %7
  %11 = tail call ptr @lean_array_set_panic(ptr noundef nonnull %1, ptr noundef %3) #4
  br label %lean_dec.exit

12:                                               ; preds = %7
  %.val.i.i.i = load i32, ptr %1, align 4, !tbaa !4
  %13 = icmp eq i32 %.val.i.i.i, 1
  br i1 %13, label %lean_ensure_exclusive_array.exit.i.i, label %14

14:                                               ; preds = %12
  %15 = tail call ptr @lean_copy_expand_array(ptr noundef nonnull %1, i1 noundef zeroext false) #4
  br label %lean_ensure_exclusive_array.exit.i.i

lean_ensure_exclusive_array.exit.i.i:             ; preds = %14, %12
  %.0.i.i.i = phi ptr [ %15, %14 ], [ %1, %12 ]
  %16 = getelementptr inbounds nuw i8, ptr %.0.i.i.i, i64 24
  %17 = getelementptr inbounds nuw ptr, ptr %16, i64 %8
  %18 = load ptr, ptr %17, align 8, !tbaa !9
  %19 = ptrtoint ptr %18 to i64
  %20 = and i64 %19, 1
  %.not.i.i = icmp eq i64 %20, 0
  br i1 %.not.i.i, label %21, label %lean_array_set.exit.thread

21:                                               ; preds = %lean_ensure_exclusive_array.exit.i.i
  %22 = load i32, ptr %18, align 4, !tbaa !4
  %23 = icmp sgt i32 %22, 1
  br i1 %23, label %24, label %26, !prof !11

24:                                               ; preds = %21
  %25 = add nsw i32 %22, -1
  store i32 %25, ptr %18, align 4, !tbaa !4
  br label %lean_array_set.exit.thread

26:                                               ; preds = %21
  %.not.i.i.i = icmp eq i32 %22, 0
  br i1 %.not.i.i.i, label %lean_array_set.exit.thread, label %27

27:                                               ; preds = %26
  tail call void @lean_dec_ref_cold(ptr noundef nonnull %18) #4
  br label %lean_array_set.exit.thread

lean_array_set.exit.thread:                       ; preds = %lean_ensure_exclusive_array.exit.i.i, %24, %26, %27
  store ptr %3, ptr %17, align 8, !tbaa !9
  br label %lean_dec.exit

28:                                               ; preds = %4
  %29 = tail call ptr @lean_array_set_panic(ptr noundef %1, ptr noundef %3) #4
  %30 = load i32, ptr %2, align 4, !tbaa !4
  %31 = icmp sgt i32 %30, 1
  br i1 %31, label %32, label %34, !prof !11

32:                                               ; preds = %28
  %33 = add nsw i32 %30, -1
  store i32 %33, ptr %2, align 4, !tbaa !4
  br label %lean_dec.exit

34:                                               ; preds = %28
  %.not.i = icmp eq i32 %30, 0
  br i1 %.not.i, label %lean_dec.exit, label %35

35:                                               ; preds = %34
  tail call void @lean_dec_ref_cold(ptr noundef nonnull %2) #4
  br label %lean_dec.exit

lean_dec.exit:                                    ; preds = %35, %34, %32, %lean_array_set.exit.thread8, %lean_array_set.exit.thread
  %.1.i7 = phi ptr [ %.0.i.i.i, %lean_array_set.exit.thread ], [ %11, %lean_array_set.exit.thread8 ], [ %29, %32 ], [ %29, %34 ], [ %29, %35 ]
  ret ptr %.1.i7
}